target datalayout = "e-m:e-p270:32:32-p271:32:32-p272:64:64-i64:64-i128:128-f80:128-n8:16:32:64-S128"
target triple = "x86_64-pc-linux-gnu"

%struct.H5O_storage_virtual_name_seg_t = type { ptr, ptr }

@H5_H5O_storage_virtual_name_seg_t_reg_free_list = global { i8, [3 x i8], i32, i32, [4 x i8], ptr, i64, ptr } { i8 0, [3 x i8] zeroinitializer, i32 0, i32 0, [4 x i8] zeroinitializer, ptr @.str, i64 16, ptr null }, align 8
@H5D_init_g = external global i8, align 1
@H5_libterm_g = external global i8, align 1
@.str.1 = private unnamed_addr constant [104 x i8] c"generated/home/dtcxzyw/WorkSpace/Projects/compilers/llvm-opt-benchmark/bench/hdf5/hdf5/src/H5Dvirtual.c\00", align 1
@H5E_FUNC_g = external global i64, align 8
@H5E_CANTINIT_g = external global i64, align 8
@.str.2 = private unnamed_addr constant [32 x i8] c"interface initialization failed\00", align 1
@__func__.H5D_virtual_free_parsed_name = private unnamed_addr constant [29 x i8] c"H5D_virtual_free_parsed_name\00", align 1

; Function Attrs: nounwind uwtable
define i32 @H5D_virtual_free_parsed_name(ptr noundef %0) #0 {
  %2 = alloca ptr, align 8
  %3 = alloca ptr, align 8
  %4 = alloca i32, align 4
  %5 = alloca i8, align 1
  store ptr %0, ptr %2, align 8, !tbaa !159
  call void @llvm.lifetime.start.p0(i64 8, ptr %3) #10
  call void @llvm.lifetime.start.p0(i64 4, ptr %4) #10
  store i32 0, ptr %4, align 4, !tbaa !12
  call void @llvm.lifetime.start.p0(i64 1, ptr %5) #10
  store i8 0, ptr %5, align 1, !tbaa !14
  %6 = load i8, ptr @H5D_init_g, align 1, !tbaa !14, !range !16, !noundef !17
  %7 = trunc i8 %6 to i1
  br i1 %7, label %12, label %8

8:                                                ; preds = %1
  %9 = load i8, ptr @H5_libterm_g, align 1, !tbaa !14, !range !16, !noundef !17
  %10 = trunc i8 %9 to i1
  %11 = xor i1 %10, true
  br label %12

12:                                               ; preds = %8, %1
  %13 = phi i1 [ false, %1 ], [ %11, %8 ]
  %14 = xor i1 %13, true
  %15 = xor i1 %14, true
  %16 = zext i1 %15 to i32
  %17 = sext i32 %16 to i64
  %18 = call i64 @llvm.expect.i64(i64 %17, i64 0)
  %19 = icmp ne i64 %18, 0
  br i1 %19, label %20, label %43

20:                                               ; preds = %12
  store i8 1, ptr @H5D_init_g, align 1, !tbaa !14
  %21 = call i32 @H5D__init_package()
  %22 = icmp slt i32 %21, 0
  br i1 %22, label %23, label %42

23:                                               ; preds = %20
  store i8 0, ptr @H5D_init_g, align 1, !tbaa !14
  br label %24

24:                                               ; preds = %23
  br label %25

25:                                               ; preds = %24
  br label %26

26:                                               ; preds = %25
  %27 = load i64, ptr @H5E_FUNC_g, align 8, !tbaa !10
  %28 = load i64, ptr @H5E_CANTINIT_g, align 8, !tbaa !10
  %29 = call i32 (ptr, ptr, i32, i64, i64, ptr, ...) @H5E_printf_stack(ptr noundef @.str.1, ptr noundef @__func__.H5D_virtual_free_parsed_name, i32 noundef 1267, i64 noundef %27, i64 noundef %28, ptr noundef @.str.2)
  br label %30

30:                                               ; preds = %26
  br label %31

31:                                               ; preds = %30
  store i8 1, ptr %5, align 1, !tbaa !14
  %32 = load i8, ptr %5, align 1, !tbaa !14, !range !16, !noundef !17
  %33 = trunc i8 %32 to i1
  %34 = zext i1 %33 to i8
  store i8 %34, ptr %5, align 1, !tbaa !14
  br label %35

35:                                               ; preds = %31
  br label %36

36:                                               ; preds = %35
  br label %37

37:                                               ; preds = %36
  store i32 -1, ptr %4, align 4, !tbaa !12
  br label %74

38:                                               ; No predecessors!
  br label %39

39:                                               ; preds = %38
  br label %40

40:                                               ; preds = %39
  br label %41

41:                                               ; preds = %40
  br label %42

42:                                               ; preds = %41, %20
  br label %43

43:                                               ; preds = %42, %12
  %44 = load i8, ptr @H5D_init_g, align 1, !tbaa !14, !range !16, !noundef !17
  %45 = trunc i8 %44 to i1
  br i1 %45, label %50, label %46

46:                                               ; preds = %43
  %47 = load i8, ptr @H5_libterm_g, align 1, !tbaa !14, !range !16, !noundef !17
  %48 = trunc i8 %47 to i1
  %49 = xor i1 %48, true
  br label %50

50:                                               ; preds = %46, %43
  %51 = phi i1 [ true, %43 ], [ %49, %46 ]
  %52 = xor i1 %51, true
  %53 = xor i1 %52, true
  %54 = zext i1 %53 to i32
  %55 = sext i32 %54 to i64
  %56 = call i64 @llvm.expect.i64(i64 %55, i64 1)
  %57 = icmp ne i64 %56, 0
  br i1 %57, label %58, label %75

58:                                               ; preds = %50
  br label %59

59:                                               ; preds = %62, %58
  %60 = load ptr, ptr %2, align 8, !tbaa !159
  %61 = icmp ne ptr %60, null
  br i1 %61, label %62, label %73

62:                                               ; preds = %59
  %63 = load ptr, ptr %2, align 8, !tbaa !159
  %64 = getelementptr inbounds nuw %struct.H5O_storage_virtual_name_seg_t, ptr %63, i32 0, i32 0
  %65 = load ptr, ptr %64, align 8, !tbaa !148
  %66 = call ptr @H5MM_xfree(ptr noundef %65)
  %67 = load ptr, ptr %2, align 8, !tbaa !159
  %68 = getelementptr inbounds nuw %struct.H5O_storage_virtual_name_seg_t, ptr %67, i32 0, i32 1
  %69 = load ptr, ptr %68, align 8, !tbaa !160
  store ptr %69, ptr %3, align 8, !tbaa !159
  %70 = load ptr, ptr %2, align 8, !tbaa !159
  %71 = call ptr @H5FL_reg_free(ptr noundef @H5_H5O_storage_virtual_name_seg_t_reg_free_list, ptr noundef %70)
  %72 = load ptr, ptr %3, align 8, !tbaa !159
  store ptr %72, ptr %2, align 8, !tbaa !159
  br label %59, !llvm.loop !171

73:                                               ; preds = %59
  br label %74

74:                                               ; preds = %73, %37
  br label %75

75:                                               ; preds = %74, %50
  %76 = load i32, ptr %4, align 4, !tbaa !12
  call void @llvm.lifetime.end.p0(i64 1, ptr %5) #10
  call void @llvm.lifetime.end.p0(i64 4, ptr %4) #10
  call void @llvm.lifetime.end.p0(i64 8, ptr %3) #10
  ret i32 %76
}