; Function Attrs: nounwind uwtable
define range(i32 -1, 1) i32 @H5D_virtual_free_parsed_name(ptr noundef %0) local_unnamed_addr #0 {
  %2 = load i8, ptr @H5D_init_g, align 1, !tbaa !3, !range !7, !noundef !8
  %3 = trunc nuw i8 %2 to i1
  %4 = load i8, ptr @H5_libterm_g, align 1, !range !7
  %5 = trunc nuw i8 %4 to i1
  %6 = select i1 %3, i1 true, i1 %5
  br i1 %6, label %14, label %7, !prof !9

7:                                                ; preds = %1
  store i8 1, ptr @H5D_init_g, align 1, !tbaa !3
  %8 = tail call i32 @H5D__init_package() #14
  %9 = icmp slt i32 %8, 0
  br i1 %9, label %10, label %._crit_edge

._crit_edge:                                      ; preds = %7
  %.pre = load i8, ptr @H5D_init_g, align 1, !tbaa !3, !range !7
  %.pre9 = load i8, ptr @H5_libterm_g, align 1, !range !7
  %.pre10 = trunc nuw i8 %.pre to i1
  %.pre11 = trunc nuw i8 %.pre9 to i1
  br label %14

10:                                               ; preds = %7
  store i8 0, ptr @H5D_init_g, align 1, !tbaa !3
  %11 = load i64, ptr @H5E_FUNC_g, align 8, !tbaa !24
  %12 = load i64, ptr @H5E_CANTINIT_g, align 8, !tbaa !24
  %13 = tail call i32 (ptr, ptr, i32, i64, i64, ptr, ...) @H5E_printf_stack(ptr noundef nonnull @.str.1, ptr noundef nonnull @__func__.H5D_virtual_free_parsed_name, i32 noundef 1267, i64 noundef %11, i64 noundef %12, ptr noundef nonnull @.str.2) #14
  br label %.loopexit

14:                                               ; preds = %._crit_edge, %1
  %.pre-phi12 = phi i1 [ %.pre11, %._crit_edge ], [ %5, %1 ]
  %.pre-phi = phi i1 [ %.pre10, %._crit_edge ], [ %3, %1 ]
  %15 = xor i1 %.pre-phi12, true
  %16 = select i1 %.pre-phi, i1 true, i1 %15
  %17 = icmp ne ptr %0, null
  %or.cond = and i1 %17, %16
  br i1 %or.cond, label %.preheader, label %.loopexit, !prof !144

.preheader:                                       ; preds = %14, %.preheader
  %.07 = phi ptr [ %21, %.preheader ], [ %0, %14 ]
  %18 = load ptr, ptr %.07, align 8, !tbaa !132
  %19 = tail call ptr @H5MM_xfree(ptr noundef %18) #14
  %20 = getelementptr inbounds nuw i8, ptr %.07, i64 8
  %21 = load ptr, ptr %20, align 8, !tbaa !142
  %22 = tail call ptr @H5FL_reg_free(ptr noundef nonnull @H5_H5O_storage_virtual_name_seg_t_reg_free_list, ptr noundef nonnull %.07) #14
  %.old1.not = icmp eq ptr %21, null
  br i1 %.old1.not, label %.loopexit, label %.preheader

.loopexit:                                        ; preds = %.preheader, %10, %14
  %.0 = phi i32 [ -1, %10 ], [ 0, %14 ], [ 0, %.preheader ]
  ret i32 %.0
}